target datalayout = "e-m:e-p270:32:32-p271:32:32-p272:64:64-i64:64-i128:128-f80:128-n8:16:32:64-S128"
target triple = "x86_64-pc-linux-gnu"

%struct.sha512_ctx = type { [16 x i64], i64, [8 x i64], i32 }

; Function Attrs: nounwind uwtable
define dso_local void @rhash_sha512_final(ptr noundef %0, ptr noundef %1) #0 {
  %3 = alloca ptr, align 8
  %4 = alloca ptr, align 8
  %5 = alloca i64, align 8
  %6 = alloca i32, align 4
  store ptr %0, ptr %3, align 8, !tbaa !4
  store ptr %1, ptr %4, align 8, !tbaa !14
  call void @llvm.lifetime.start.p0(i64 8, ptr %5) #6
  %7 = load ptr, ptr %3, align 8, !tbaa !4
  %8 = getelementptr inbounds nuw %struct.sha512_ctx, ptr %7, i32 0, i32 1
  %9 = load i64, ptr %8, align 8, !tbaa !9
  %10 = trunc i64 %9 to i32
  %11 = and i32 %10, 127
  %12 = lshr i32 %11, 3
  %13 = zext i32 %12 to i64
  store i64 %13, ptr %5, align 8, !tbaa !16
  call void @llvm.lifetime.start.p0(i64 4, ptr %6) #6
  %14 = load ptr, ptr %3, align 8, !tbaa !4
  %15 = getelementptr inbounds nuw %struct.sha512_ctx, ptr %14, i32 0, i32 1
  %16 = load i64, ptr %15, align 8, !tbaa !9
  %17 = trunc i64 %16 to i32
  %18 = and i32 %17, 7
  %19 = mul i32 %18, 8
  store i32 %19, ptr %6, align 4, !tbaa !21
  %20 = load i32, ptr %6, align 4, !tbaa !21
  %21 = zext i32 %20 to i64
  %22 = shl i64 -1, %21
  %23 = xor i64 %22, -1
  %24 = load ptr, ptr %3, align 8, !tbaa !4
  %25 = getelementptr inbounds nuw %struct.sha512_ctx, ptr %24, i32 0, i32 0
  %26 = load i64, ptr %5, align 8, !tbaa !16
  %27 = getelementptr inbounds nuw [16 x i64], ptr %25, i64 0, i64 %26
  %28 = load i64, ptr %27, align 8, !tbaa !16
  %29 = and i64 %28, %23
  store i64 %29, ptr %27, align 8, !tbaa !16
  %30 = load i32, ptr %6, align 4, !tbaa !21
  %31 = zext i32 %30 to i64
  %32 = shl i64 128, %31
  %33 = load ptr, ptr %3, align 8, !tbaa !4
  %34 = getelementptr inbounds nuw %struct.sha512_ctx, ptr %33, i32 0, i32 0
  %35 = load i64, ptr %5, align 8, !tbaa !16
  %36 = add i64 %35, 1
  store i64 %36, ptr %5, align 8, !tbaa !16
  %37 = getelementptr inbounds nuw [16 x i64], ptr %34, i64 0, i64 %35
  %38 = load i64, ptr %37, align 8, !tbaa !16
  %39 = xor i64 %38, %32
  store i64 %39, ptr %37, align 8, !tbaa !16
  %40 = load i64, ptr %5, align 8, !tbaa !16
  %41 = icmp uge i64 %40, 15
  br i1 %41, label %42, label %57

42:                                               ; preds = %2
  %43 = load i64, ptr %5, align 8, !tbaa !16
  %44 = icmp eq i64 %43, 15
  br i1 %44, label %45, label %50

45:                                               ; preds = %42
  %46 = load ptr, ptr %3, align 8, !tbaa !4
  %47 = getelementptr inbounds nuw %struct.sha512_ctx, ptr %46, i32 0, i32 0
  %48 = load i64, ptr %5, align 8, !tbaa !16
  %49 = getelementptr inbounds nuw [16 x i64], ptr %47, i64 0, i64 %48
  store i64 0, ptr %49, align 8, !tbaa !16
  br label %50

50:                                               ; preds = %45, %42
  %51 = load ptr, ptr %3, align 8, !tbaa !4
  %52 = getelementptr inbounds nuw %struct.sha512_ctx, ptr %51, i32 0, i32 2
  %53 = getelementptr inbounds [8 x i64], ptr %52, i64 0, i64 0
  %54 = load ptr, ptr %3, align 8, !tbaa !4
  %55 = getelementptr inbounds nuw %struct.sha512_ctx, ptr %54, i32 0, i32 0
  %56 = getelementptr inbounds [16 x i64], ptr %55, i64 0, i64 0
  call void @rhash_sha512_process_block(ptr noundef %53, ptr noundef %56)
  store i64 0, ptr %5, align 8, !tbaa !16
  br label %57

57:                                               ; preds = %50, %2
  br label %58

58:                                               ; preds = %61, %57
  %59 = load i64, ptr %5, align 8, !tbaa !16
  %60 = icmp ult i64 %59, 15
  br i1 %60, label %61, label %67

61:                                               ; preds = %58
  %62 = load ptr, ptr %3, align 8, !tbaa !4
  %63 = getelementptr inbounds nuw %struct.sha512_ctx, ptr %62, i32 0, i32 0
  %64 = load i64, ptr %5, align 8, !tbaa !16
  %65 = add i64 %64, 1
  store i64 %65, ptr %5, align 8, !tbaa !16
  %66 = getelementptr inbounds nuw [16 x i64], ptr %63, i64 0, i64 %64
  store i64 0, ptr %66, align 8, !tbaa !16
  br label %58, !llvm.loop !23

67:                                               ; preds = %58
  %68 = load ptr, ptr %3, align 8, !tbaa !4
  %69 = getelementptr inbounds nuw %struct.sha512_ctx, ptr %68, i32 0, i32 1
  %70 = load i64, ptr %69, align 8, !tbaa !9
  %71 = shl i64 %70, 3
  %72 = call i64 @llvm.bswap.i64(i64 %71)
  %73 = load ptr, ptr %3, align 8, !tbaa !4
  %74 = getelementptr inbounds nuw %struct.sha512_ctx, ptr %73, i32 0, i32 0
  %75 = getelementptr inbounds [16 x i64], ptr %74, i64 0, i64 15
  store i64 %72, ptr %75, align 8, !tbaa !16
  %76 = load ptr, ptr %3, align 8, !tbaa !4
  %77 = getelementptr inbounds nuw %struct.sha512_ctx, ptr %76, i32 0, i32 2
  %78 = getelementptr inbounds [8 x i64], ptr %77, i64 0, i64 0
  %79 = load ptr, ptr %3, align 8, !tbaa !4
  %80 = getelementptr inbounds nuw %struct.sha512_ctx, ptr %79, i32 0, i32 0
  %81 = getelementptr inbounds [16 x i64], ptr %80, i64 0, i64 0
  call void @rhash_sha512_process_block(ptr noundef %78, ptr noundef %81)
  %82 = load ptr, ptr %4, align 8, !tbaa !14
  %83 = icmp ne ptr %82, null
  br i1 %83, label %84, label %93

84:                                               ; preds = %67
  %85 = load ptr, ptr %4, align 8, !tbaa !14
  %86 = load ptr, ptr %3, align 8, !tbaa !4
  %87 = getelementptr inbounds nuw %struct.sha512_ctx, ptr %86, i32 0, i32 2
  %88 = getelementptr inbounds [8 x i64], ptr %87, i64 0, i64 0
  %89 = load ptr, ptr %3, align 8, !tbaa !4
  %90 = getelementptr inbounds nuw %struct.sha512_ctx, ptr %89, i32 0, i32 3
  %91 = load i32, ptr %90, align 8, !tbaa !13
  %92 = zext i32 %91 to i64
  call void @rhash_swap_copy_str_to_u64(ptr noundef %85, i32 noundef 0, ptr noundef %88, i64 noundef %92)
  br label %93

93:                                               ; preds = %84, %67
  call void @llvm.lifetime.end.p0(i64 4, ptr %6) #6
  call void @llvm.lifetime.end.p0(i64 8, ptr %5) #6
  ret void
}