; Function Attrs: nounwind uwtable
define dso_local void @rhash_sha512_final(ptr noundef %0, ptr noundef %1) local_unnamed_addr #5 {
  %3 = getelementptr inbounds nuw i8, ptr %0, i64 128
  %4 = load i64, ptr %3, align 8, !tbaa !10
  %5 = lshr i64 %4, 3
  %6 = and i64 %5, 15
  %7 = shl i64 %4, 3
  %8 = and i64 %7, 56
  %9 = shl nsw i64 -1, %8
  %10 = xor i64 %9, -1
  %11 = getelementptr inbounds nuw [16 x i64], ptr %0, i64 0, i64 %6
  %12 = load i64, ptr %11, align 8, !tbaa !13
  %13 = and i64 %12, %10
  %14 = shl nuw i64 128, %8
  %15 = add nuw nsw i64 %6, 1
  %16 = xor i64 %13, %14
  store i64 %16, ptr %11, align 8, !tbaa !13
  %17 = icmp samesign ugt i64 %6, 13
  br i1 %17, label %18, label %._crit_edge

18:                                               ; preds = %2
  %19 = icmp eq i64 %15, 15
  br i1 %19, label %20, label %22

20:                                               ; preds = %18
  %21 = getelementptr inbounds nuw i8, ptr %0, i64 120
  store i64 0, ptr %21, align 8, !tbaa !13
  br label %22

22:                                               ; preds = %20, %18
  %23 = getelementptr inbounds nuw i8, ptr %0, i64 136
  tail call fastcc void @rhash_sha512_process_block(ptr noundef nonnull %23, ptr noundef nonnull %0)
  br label %._crit_edge

._crit_edge:                                      ; preds = %22, %2
  %.0 = phi i64 [ 0, %22 ], [ %15, %2 ]
  %24 = shl nuw nsw i64 %.0, 3
  %scevgep = getelementptr i8, ptr %0, i64 %24
  %25 = sub nuw nsw i64 120, %24
  tail call void @llvm.memset.p0.i64(ptr align 8 %scevgep, i8 0, i64 %25, i1 false), !tbaa !13
  %26 = load i64, ptr %3, align 8, !tbaa !10
  %27 = shl i64 %26, 3
  %28 = tail call i64 @llvm.bswap.i64(i64 %27)
  %29 = getelementptr inbounds nuw i8, ptr %0, i64 120
  store i64 %28, ptr %29, align 8, !tbaa !13
  %30 = getelementptr inbounds nuw i8, ptr %0, i64 136
  tail call fastcc void @rhash_sha512_process_block(ptr noundef nonnull %30, ptr noundef nonnull %0)
  %.not = icmp eq ptr %1, null
  br i1 %.not, label %35, label %31

31:                                               ; preds = %._crit_edge
  %32 = getelementptr inbounds nuw i8, ptr %0, i64 200
  %33 = load i32, ptr %32, align 8, !tbaa !4
  %34 = zext i32 %33 to i64
  tail call void @rhash_swap_copy_str_to_u64(ptr noundef nonnull %1, i32 noundef 0, ptr noundef nonnull %30, i64 noundef %34) #9
  br label %35

35:                                               ; preds = %31, %._crit_edge
  ret void
}